target datalayout = "e-m:e-p270:32:32-p271:32:32-p272:64:64-i64:64-i128:128-f80:128-n8:16:32:64-S128"
target triple = "x86_64-unknown-linux-gnu"

%struct.SCSISense = type { i8, i8, i8 }
%struct.UfsLu = type { %struct.DeviceState, i8, %struct.UnitDescriptor, %struct.SCSIBus, ptr, %struct.BlockConf, ptr }
%struct.DeviceState = type { %struct.Object, ptr, ptr, i8, i8, i64, ptr, i32, i8, ptr, %struct.NamedGPIOListHead, %struct.NamedClockListHead, %struct.BusStateHead, i32, i32, i32, %struct.ResettableState, ptr, %struct.MemReentrancyGuard }
%struct.Object = type { ptr, ptr, ptr, i32, ptr }
%struct.NamedGPIOListHead = type { ptr }
%struct.NamedClockListHead = type { ptr }
%struct.BusStateHead = type { ptr }
%struct.ResettableState = type { i32, i8, i8 }
%struct.MemReentrancyGuard = type { i8 }
%struct.UnitDescriptor = type <{ i8, i8, i8, i8, i8, i8, i8, i8, i8, i8, i8, i64, i32, i8, i64, i16, i8, [6 x i8], i32 }>
%struct.SCSIBus = type { %struct.BusState, i32, %struct.SCSISense, ptr, i32 }
%struct.BusState = type { %struct.Object, ptr, ptr, ptr, i32, i8, i8, i32, %union.BusChildHead, %struct.BusStateEntry, %struct.ResettableState }
%union.BusChildHead = type { %struct.QTailQLink }
%struct.QTailQLink = type { ptr, ptr }
%struct.BusStateEntry = type { ptr, ptr }
%struct.BlockConf = type { ptr, i32, i32, i32, i32, i32, i32, i32, i32, i32, i32, i32, i32, i32, i32, i8, i32, i32, i32, i32 }
%struct.UfsRequest = type { ptr, i32, i32, %struct.UtpTransferReqDesc, %struct.UtpUpiuReq, %struct.UtpUpiuRsp, ptr, i32 }
%struct.UtpTransferReqDesc = type { %struct.RequestDescHeader, i32, i32, i16, i16, i16, i16 }
%struct.RequestDescHeader = type { i32, i32, i32, i32 }
%struct.UtpUpiuReq = type { %struct.UtpUpiuHeader, %union.anon }
%struct.UtpUpiuHeader = type { i8, i8, i8, i8, i8, i8, i8, i8, i8, i8, i16 }
%union.anon = type { %struct.UtpUpiuQuery }
%struct.UtpUpiuQuery = type { i8, i8, i8, i8, i16, i16, i32, [2 x i32], [256 x i8] }
%struct.UtpUpiuRsp = type { %struct.UtpUpiuHeader, %union.anon.0 }
%union.anon.0 = type { %struct.UtpUpiuQuery }
%struct.UtpUpiuCmd = type { i32, [16 x i8] }

; Function Attrs: nounwind sspstrong uwtable
define internal i32 @ufs_process_scsi_cmd(ptr noundef %lu, ptr noundef %req) #0 {
entry:
  %retval = alloca i32, align 4
  %lu.addr = alloca ptr, align 8
  %req.addr = alloca ptr, align 8
  %task_tag = alloca i8, align 1
  %scsi_req = alloca ptr, align 8
  %len = alloca i32, align 4
  store ptr %lu, ptr %lu.addr, align 8
  store ptr %req, ptr %req.addr, align 8
  %0 = load ptr, ptr %req.addr, align 8
  %req_upiu = getelementptr inbounds %struct.UfsRequest, ptr %0, i32 0, i32 4
  %header = getelementptr inbounds %struct.UtpUpiuReq, ptr %req_upiu, i32 0, i32 0
  %task_tag1 = getelementptr inbounds %struct.UtpUpiuHeader, ptr %header, i32 0, i32 3
  %1 = load i8, ptr %task_tag1, align 1
  store i8 %1, ptr %task_tag, align 1
  %2 = load ptr, ptr %req.addr, align 8
  %req_upiu2 = getelementptr inbounds %struct.UfsRequest, ptr %2, i32 0, i32 4
  %3 = getelementptr inbounds %struct.UtpUpiuReq, ptr %req_upiu2, i32 0, i32 1
  %cdb = getelementptr inbounds %struct.UtpUpiuCmd, ptr %3, i32 0, i32 1
  %arrayidx = getelementptr [16 x i8], ptr %cdb, i64 0, i64 0
  %4 = load i8, ptr %arrayidx, align 4
  %conv = zext i8 %4 to i32
  %cmp = icmp eq i32 %conv, 160
  br i1 %cmp, label %if.then, label %if.end

if.then:                                          ; preds = %entry
  %5 = load ptr, ptr %lu.addr, align 8
  %6 = load ptr, ptr %req.addr, align 8
  %call = call i32 @ufs_emulate_scsi_cmd(ptr noundef %5, ptr noundef %6)
  store i32 %call, ptr %retval, align 4
  br label %return

if.end:                                           ; preds = %entry
  %7 = load ptr, ptr %lu.addr, align 8
  %scsi_dev = getelementptr inbounds %struct.UfsLu, ptr %7, i32 0, i32 4
  %8 = load ptr, ptr %scsi_dev, align 8
  %9 = load i8, ptr %task_tag, align 1
  %conv4 = zext i8 %9 to i32
  %10 = load ptr, ptr %lu.addr, align 8
  %lun = getelementptr inbounds %struct.UfsLu, ptr %10, i32 0, i32 1
  %11 = load i8, ptr %lun, align 8
  %conv5 = zext i8 %11 to i32
  %12 = load ptr, ptr %req.addr, align 8
  %req_upiu6 = getelementptr inbounds %struct.UfsRequest, ptr %12, i32 0, i32 4
  %13 = getelementptr inbounds %struct.UtpUpiuReq, ptr %req_upiu6, i32 0, i32 1
  %cdb7 = getelementptr inbounds %struct.UtpUpiuCmd, ptr %13, i32 0, i32 1
  %arraydecay = getelementptr inbounds [16 x i8], ptr %cdb7, i64 0, i64 0
  %14 = load ptr, ptr %req.addr, align 8
  %call8 = call ptr @scsi_req_new(ptr noundef %8, i32 noundef %conv4, i32 noundef %conv5, ptr noundef %arraydecay, i64 noundef 16, ptr noundef %14)
  store ptr %call8, ptr %scsi_req, align 8
  %15 = load ptr, ptr %scsi_req, align 8
  %call9 = call i32 @scsi_req_enqueue(ptr noundef %15)
  store i32 %call9, ptr %len, align 4
  %16 = load i32, ptr %len, align 4
  %tobool = icmp ne i32 %16, 0
  br i1 %tobool, label %if.then10, label %if.end11

if.then10:                                        ; preds = %if.end
  %17 = load ptr, ptr %scsi_req, align 8
  call void @scsi_req_continue(ptr noundef %17)
  br label %if.end11

if.end11:                                         ; preds = %if.then10, %if.end
  store i32 2, ptr %retval, align 4
  br label %return

return:                                           ; preds = %if.end11, %if.then
  %18 = load i32, ptr %retval, align 4
  ret i32 %18
}