; Function Attrs: nounwind sspstrong uwtable
define internal range(i32 0, 3) i32 @ufs_process_scsi_cmd(ptr noundef readonly captures(none) %lu, ptr noundef %req) #1 {
entry:
  %cdb = getelementptr inbounds nuw i8, ptr %req, i64 64
  %0 = load i8, ptr %cdb, align 4
  %cmp = icmp eq i8 %0, -96
  br i1 %cmp, label %if.then, label %if.end

if.then:                                          ; preds = %entry
  %call = tail call i32 @ufs_emulate_scsi_cmd(ptr noundef %lu, ptr noundef nonnull %req)
  br label %return

if.end:                                           ; preds = %entry
  %task_tag1 = getelementptr inbounds nuw i8, ptr %req, i64 51
  %1 = load i8, ptr %task_tag1, align 1
  %scsi_dev = getelementptr inbounds nuw i8, ptr %lu, i64 352
  %2 = load ptr, ptr %scsi_dev, align 8
  %conv4 = zext i8 %1 to i32
  %lun = getelementptr inbounds nuw i8, ptr %lu, i64 160
  %3 = load i8, ptr %lun, align 8
  %conv5 = zext i8 %3 to i32
  %call8 = tail call ptr @scsi_req_new(ptr noundef %2, i32 noundef %conv4, i32 noundef %conv5, ptr noundef nonnull %cdb, i64 noundef 16, ptr noundef nonnull %req) #9
  %call9 = tail call i32 @scsi_req_enqueue(ptr noundef %call8) #9
  %tobool.not = icmp eq i32 %call9, 0
  br i1 %tobool.not, label %return, label %if.then10

if.then10:                                        ; preds = %if.end
  tail call void @scsi_req_continue(ptr noundef %call8) #9
  br label %return

return:                                           ; preds = %if.end, %if.then10, %if.then
  %retval.0 = phi i32 [ %call, %if.then ], [ 2, %if.then10 ], [ 2, %if.end ]
  ret i32 %retval.0
}